target datalayout = "e-m:e-p270:32:32-p271:32:32-p272:64:64-i64:64-i128:128-f80:128-n8:16:32:64-S128"
target triple = "x86_64-pc-linux-gnu"

%struct._MRIStepInnerStepper = type { ptr, ptr, ptr, ptr, i32, i32, i32, double, double, ptr, ptr, i64, i64, i64, i64 }
%struct._MRIStepInnerStepper_Ops = type { ptr, ptr, ptr, ptr, ptr, ptr }

; Function Attrs: nounwind uwtable
define i32 @mriStepInnerStepper_Evolve(ptr noundef %0, double noundef %1, double noundef %2, ptr noundef %3) #0 {
  %5 = alloca i32, align 4
  %6 = alloca ptr, align 8
  %7 = alloca double, align 8
  %8 = alloca double, align 8
  %9 = alloca ptr, align 8
  store ptr %0, ptr %6, align 8, !tbaa !11
  store double %1, ptr %7, align 8, !tbaa !7
  store double %2, ptr %8, align 8, !tbaa !7
  store ptr %3, ptr %9, align 8, !tbaa !9
  %10 = load ptr, ptr %6, align 8, !tbaa !11
  %11 = icmp eq ptr %10, null
  br i1 %11, label %12, label %13

12:                                               ; preds = %4
  store i32 -22, ptr %5, align 4
  br label %43

13:                                               ; preds = %4
  %14 = load ptr, ptr %6, align 8, !tbaa !11
  %15 = getelementptr inbounds nuw %struct._MRIStepInnerStepper, ptr %14, i32 0, i32 1
  %16 = load ptr, ptr %15, align 8, !tbaa !173
  %17 = icmp eq ptr %16, null
  br i1 %17, label %18, label %19

18:                                               ; preds = %13
  store i32 -22, ptr %5, align 4
  br label %43

19:                                               ; preds = %13
  %20 = load ptr, ptr %6, align 8, !tbaa !11
  %21 = getelementptr inbounds nuw %struct._MRIStepInnerStepper, ptr %20, i32 0, i32 1
  %22 = load ptr, ptr %21, align 8, !tbaa !173
  %23 = getelementptr inbounds nuw %struct._MRIStepInnerStepper_Ops, ptr %22, i32 0, i32 0
  %24 = load ptr, ptr %23, align 8, !tbaa !219
  %25 = icmp eq ptr %24, null
  br i1 %25, label %26, label %27

26:                                               ; preds = %19
  store i32 -22, ptr %5, align 4
  br label %43

27:                                               ; preds = %19
  %28 = load ptr, ptr %6, align 8, !tbaa !11
  %29 = getelementptr inbounds nuw %struct._MRIStepInnerStepper, ptr %28, i32 0, i32 1
  %30 = load ptr, ptr %29, align 8, !tbaa !173
  %31 = getelementptr inbounds nuw %struct._MRIStepInnerStepper_Ops, ptr %30, i32 0, i32 0
  %32 = load ptr, ptr %31, align 8, !tbaa !219
  %33 = load ptr, ptr %6, align 8, !tbaa !11
  %34 = load double, ptr %7, align 8, !tbaa !7
  %35 = load double, ptr %8, align 8, !tbaa !7
  %36 = load ptr, ptr %9, align 8, !tbaa !9
  %37 = call i32 %32(ptr noundef %33, double noundef %34, double noundef %35, ptr noundef %36)
  %38 = load ptr, ptr %6, align 8, !tbaa !11
  %39 = getelementptr inbounds nuw %struct._MRIStepInnerStepper, ptr %38, i32 0, i32 6
  store i32 %37, ptr %39, align 8, !tbaa !229
  %40 = load ptr, ptr %6, align 8, !tbaa !11
  %41 = getelementptr inbounds nuw %struct._MRIStepInnerStepper, ptr %40, i32 0, i32 6
  %42 = load i32, ptr %41, align 8, !tbaa !229
  store i32 %42, ptr %5, align 4
  br label %43

43:                                               ; preds = %27, %26, %18, %12
  %44 = load i32, ptr %5, align 4
  ret i32 %44
}