; Function Attrs: nounwind uwtable
define i32 @mriStepInnerStepper_Evolve(ptr noundef %0, double noundef %1, double noundef %2, ptr noundef %3) local_unnamed_addr #0 {
  %5 = icmp eq ptr %0, null
  br i1 %5, label %16, label %6

6:                                                ; preds = %4
  %7 = getelementptr inbounds nuw i8, ptr %0, i64 8
  %8 = load ptr, ptr %7, align 8, !tbaa !103
  %9 = icmp eq ptr %8, null
  br i1 %9, label %16, label %10

10:                                               ; preds = %6
  %11 = load ptr, ptr %8, align 8, !tbaa !106
  %12 = icmp eq ptr %11, null
  br i1 %12, label %16, label %13

13:                                               ; preds = %10
  %14 = tail call i32 %11(ptr noundef nonnull %0, double noundef %1, double noundef %2, ptr noundef %3) #14
  %15 = getelementptr inbounds nuw i8, ptr %0, i64 40
  store i32 %14, ptr %15, align 8, !tbaa !166
  br label %16

16:                                               ; preds = %10, %6, %4, %13
  %.0 = phi i32 [ %14, %13 ], [ -22, %4 ], [ -22, %6 ], [ -22, %10 ]
  ret i32 %.0
}